; Function Attrs: mustprogress nounwind uwtable
define dso_local void @_ZN4llvm9DIBuilder17trackIfUnresolvedEPNS_6MDNodeE(ptr noundef nonnull align 8 dereferenceable(416) %0, ptr noundef %1) local_unnamed_addr #0 align 2 {
  %3 = alloca ptr, align 8
  store ptr %1, ptr %3, align 8
  %.not = icmp eq ptr %1, null
  br i1 %.not, label %13, label %4

4:                                                ; preds = %2
  %5 = getelementptr inbounds nuw i8, ptr %1, i64 1
  %6 = load i8, ptr %5, align 1
  %7 = and i8 %6, 127
  %8 = icmp eq i8 %7, 2
  br i1 %8, label %_ZNK4llvm6MDNode10isResolvedEv.exit.thread, label %_ZNK4llvm6MDNode10isResolvedEv.exit

_ZNK4llvm6MDNode10isResolvedEv.exit:              ; preds = %4
  %9 = getelementptr inbounds i8, ptr %1, i64 -8
  %10 = load i32, ptr %9, align 8
  %.not.i = icmp eq i32 %10, 0
  br i1 %.not.i, label %13, label %_ZNK4llvm6MDNode10isResolvedEv.exit.thread

_ZNK4llvm6MDNode10isResolvedEv.exit.thread:       ; preds = %4, %_ZNK4llvm6MDNode10isResolvedEv.exit
  %11 = getelementptr inbounds nuw i8, ptr %0, i64 336
  %12 = call noundef nonnull align 8 dereferenceable(8) ptr @_ZN4llvm15SmallVectorImplINS_18TypedTrackingMDRefINS_6MDNodeEEEE12emplace_backIJRPS2_EEERS3_DpOT_(ptr noundef nonnull align 8 dereferenceable(16) %11, ptr noundef nonnull align 8 dereferenceable(8) %3)
  br label %13

13:                                               ; preds = %_ZNK4llvm6MDNode10isResolvedEv.exit, %2, %_ZNK4llvm6MDNode10isResolvedEv.exit.thread
  ret void
}